target datalayout = "e-m:e-p270:32:32-p271:32:32-p272:64:64-i64:64-i128:128-f80:128-n8:16:32:64-S128"
target triple = "x86_64-unknown-linux-gnu"

%struct.QTailQLink = type { ptr, ptr }
%struct.BlockDriverState = type { i32, i8, i8, i8, i8, i8, ptr, ptr, ptr, %struct.anon.0, i8, [4096 x i8], [4096 x i8], [4096 x i8], [16 x i8], ptr, [4096 x i8], %struct.BlockLimits, i32, i32, i32, i32, [32 x i8], %union.anon.1, %union.anon.2, %union.anon.3, i32, [16 x %struct.anon.4], ptr, %struct.anon.5, ptr, ptr, %struct.anon.6, ptr, ptr, i32, ptr, i64, i64, %struct.QemuMutex, %struct.anon.7, %struct.Stat64, i32, i32, i32, i32, i32, i32, %struct.QemuMutex, %struct.anon.8, %struct.CoQueue, i8, i32, i8, %struct.CoMutex, ptr, ptr }
%struct.anon.0 = type { ptr }
%struct.BlockLimits = type { i32, i64, i32, i64, i32, i32, i32, i64, i32, i64, i64, i32, i8, i32, i32, i32, i32, i32, i32, i32 }
%union.anon.1 = type { %struct.QTailQLink }
%union.anon.2 = type { %struct.QTailQLink }
%union.anon.3 = type { %struct.QTailQLink }
%struct.anon.4 = type { ptr }
%struct.anon.5 = type { ptr }
%struct.anon.6 = type { ptr }
%struct.anon.7 = type { ptr }
%struct.Stat64 = type { i64 }
%struct.QemuMutex = type { %union.pthread_mutex_t, i8 }
%union.pthread_mutex_t = type { %struct.__pthread_mutex_s }
%struct.__pthread_mutex_s = type { i32, i32, i32, i32, i32, i16, i16, %struct.__pthread_internal_list }
%struct.__pthread_internal_list = type { ptr, ptr }
%struct.anon.8 = type { ptr }
%struct.CoQueue = type { %struct.anon.9 }
%struct.anon.9 = type { ptr, ptr }
%struct.CoMutex = type { i32, ptr, %struct.anon.10, %struct.anon.10, i32, i32, ptr }
%struct.anon.10 = type { ptr }
%struct.BDRVVmdkState = type { %struct.CoMutex, i64, i8, i8, i32, i32, i32, ptr, ptr, ptr }
%struct.VmdkExtent = type { ptr, i8, i8, i8, i8, i8, i64, i64, i32, i32, i64, i64, i64, i64, i64, ptr, ptr, i32, i32, i32, ptr, [16 x i32], [16 x i32], i64, i64, ptr }

; Function Attrs: nounwind sspstrong uwtable
define internal void @vmdk_free_extents(ptr noundef %bs) #0 {
entry:
  %bs.addr = alloca ptr, align 8
  %i = alloca i32, align 4
  %s = alloca ptr, align 8
  %e = alloca ptr, align 8
  store ptr %bs, ptr %bs.addr, align 8
  %0 = load ptr, ptr %bs.addr, align 8
  %opaque = getelementptr inbounds %struct.BlockDriverState, ptr %0, i32 0, i32 7
  %1 = load ptr, ptr %opaque, align 8
  store ptr %1, ptr %s, align 8
  call void @bdrv_graph_wrlock(ptr noundef null)
  store i32 0, ptr %i, align 4
  br label %for.cond

for.cond:                                         ; preds = %for.inc, %entry
  %2 = load i32, ptr %i, align 4
  %3 = load ptr, ptr %s, align 8
  %num_extents = getelementptr inbounds %struct.BDRVVmdkState, ptr %3, i32 0, i32 6
  %4 = load i32, ptr %num_extents, align 4
  %cmp = icmp slt i32 %2, %4
  br i1 %cmp, label %for.body, label %for.end

for.body:                                         ; preds = %for.cond
  %5 = load ptr, ptr %s, align 8
  %extents = getelementptr inbounds %struct.BDRVVmdkState, ptr %5, i32 0, i32 7
  %6 = load ptr, ptr %extents, align 8
  %7 = load i32, ptr %i, align 4
  %idxprom = sext i32 %7 to i64
  %arrayidx = getelementptr %struct.VmdkExtent, ptr %6, i64 %idxprom
  store ptr %arrayidx, ptr %e, align 8
  %8 = load ptr, ptr %e, align 8
  %l1_table = getelementptr inbounds %struct.VmdkExtent, ptr %8, i32 0, i32 15
  %9 = load ptr, ptr %l1_table, align 8
  call void @g_free(ptr noundef %9)
  %10 = load ptr, ptr %e, align 8
  %l2_cache = getelementptr inbounds %struct.VmdkExtent, ptr %10, i32 0, i32 20
  %11 = load ptr, ptr %l2_cache, align 8
  call void @g_free(ptr noundef %11)
  %12 = load ptr, ptr %e, align 8
  %l1_backup_table = getelementptr inbounds %struct.VmdkExtent, ptr %12, i32 0, i32 16
  %13 = load ptr, ptr %l1_backup_table, align 8
  call void @g_free(ptr noundef %13)
  %14 = load ptr, ptr %e, align 8
  %type = getelementptr inbounds %struct.VmdkExtent, ptr %14, i32 0, i32 25
  %15 = load ptr, ptr %type, align 8
  call void @g_free(ptr noundef %15)
  %16 = load ptr, ptr %e, align 8
  %file = getelementptr inbounds %struct.VmdkExtent, ptr %16, i32 0, i32 0
  %17 = load ptr, ptr %file, align 8
  %18 = load ptr, ptr %bs.addr, align 8
  %file1 = getelementptr inbounds %struct.BlockDriverState, ptr %18, i32 0, i32 31
  %19 = load ptr, ptr %file1, align 8
  %cmp2 = icmp ne ptr %17, %19
  br i1 %cmp2, label %if.then, label %if.end

if.then:                                          ; preds = %for.body
  %20 = load ptr, ptr %bs.addr, align 8
  %21 = load ptr, ptr %e, align 8
  %file3 = getelementptr inbounds %struct.VmdkExtent, ptr %21, i32 0, i32 0
  %22 = load ptr, ptr %file3, align 8
  call void @bdrv_unref_child(ptr noundef %20, ptr noundef %22)
  br label %if.end

if.end:                                           ; preds = %if.then, %for.body
  br label %for.inc

for.inc:                                          ; preds = %if.end
  %23 = load i32, ptr %i, align 4
  %inc = add i32 %23, 1
  store i32 %inc, ptr %i, align 4
  br label %for.cond, !llvm.loop !18

for.end:                                          ; preds = %for.cond
  call void @bdrv_graph_wrunlock(ptr noundef null)
  %24 = load ptr, ptr %s, align 8
  %extents4 = getelementptr inbounds %struct.BDRVVmdkState, ptr %24, i32 0, i32 7
  %25 = load ptr, ptr %extents4, align 8
  call void @g_free(ptr noundef %25)
  ret void
}