; Function Attrs: nounwind sspstrong uwtable
define internal fastcc void @vmdk_free_extents(ptr noundef %bs) unnamed_addr #0 {
entry:
  %opaque = getelementptr inbounds nuw i8, ptr %bs, i64 24
  %0 = load ptr, ptr %opaque, align 8
  tail call void @bdrv_graph_wrlock(ptr noundef null) #15
  %num_extents = getelementptr inbounds nuw i8, ptr %0, i64 68
  %1 = load i32, ptr %num_extents, align 4
  %cmp12 = icmp sgt i32 %1, 0
  br i1 %cmp12, label %for.body.lr.ph, label %for.end

for.body.lr.ph:                                   ; preds = %entry
  %extents = getelementptr inbounds nuw i8, ptr %0, i64 72
  %file1 = getelementptr inbounds nuw i8, ptr %bs, i64 16840
  br label %for.body

for.body:                                         ; preds = %for.body.lr.ph, %for.inc
  %indvars.iv = phi i64 [ 0, %for.body.lr.ph ], [ %indvars.iv.next, %for.inc ]
  %2 = load ptr, ptr %extents, align 8
  %arrayidx = getelementptr %struct.VmdkExtent, ptr %2, i64 %indvars.iv
  %l1_table = getelementptr inbounds nuw i8, ptr %arrayidx, i64 80
  %3 = load ptr, ptr %l1_table, align 8
  tail call void @g_free(ptr noundef %3) #15
  %l2_cache = getelementptr inbounds nuw i8, ptr %arrayidx, i64 112
  %4 = load ptr, ptr %l2_cache, align 8
  tail call void @g_free(ptr noundef %4) #15
  %l1_backup_table = getelementptr inbounds nuw i8, ptr %arrayidx, i64 88
  %5 = load ptr, ptr %l1_backup_table, align 8
  tail call void @g_free(ptr noundef %5) #15
  %type = getelementptr inbounds nuw i8, ptr %arrayidx, i64 264
  %6 = load ptr, ptr %type, align 8
  tail call void @g_free(ptr noundef %6) #15
  %7 = load ptr, ptr %arrayidx, align 8
  %8 = load ptr, ptr %file1, align 8
  %cmp2.not = icmp eq ptr %7, %8
  br i1 %cmp2.not, label %for.inc, label %if.then

if.then:                                          ; preds = %for.body
  tail call void @bdrv_unref_child(ptr noundef nonnull %bs, ptr noundef %7) #15
  br label %for.inc

for.inc:                                          ; preds = %for.body, %if.then
  %indvars.iv.next = add nuw nsw i64 %indvars.iv, 1
  %9 = load i32, ptr %num_extents, align 4
  %10 = sext i32 %9 to i64
  %cmp = icmp slt i64 %indvars.iv.next, %10
  br i1 %cmp, label %for.body, label %for.end, !llvm.loop !22

for.end:                                          ; preds = %for.inc, %entry
  tail call void @bdrv_graph_wrunlock(ptr noundef null) #15
  %extents4 = getelementptr inbounds nuw i8, ptr %0, i64 72
  %11 = load ptr, ptr %extents4, align 8
  tail call void @g_free(ptr noundef %11) #15
  ret void
}